; Function Attrs: mustprogress uwtable
define noundef ptr @_ZN9grpc_core8internal22ServerRetryThrottleMap3GetEv() local_unnamed_addr #7 align 2 personality ptr @__gxx_personality_v0 {
  %1 = load atomic i8, ptr @_ZGVZN9grpc_core8internal22ServerRetryThrottleMap3GetEvE1m acquire, align 8
  %2 = icmp eq i8 %1, 0
  br i1 %2, label %3, label %12, !prof !30

3:                                                ; preds = %0
  %4 = tail call i32 @__cxa_guard_acquire(ptr nonnull @_ZGVZN9grpc_core8internal22ServerRetryThrottleMap3GetEvE1m) #19
  %.not = icmp eq i32 %4, 0
  br i1 %.not, label %12, label %5

5:                                                ; preds = %3
  %6 = invoke noalias noundef nonnull dereferenceable(56) ptr @_Znwm(i64 noundef 56) #22
          to label %7 unwind label %14

7:                                                ; preds = %5
  %8 = getelementptr inbounds nuw i8, ptr %6, i64 16
  %9 = getelementptr inbounds nuw i8, ptr %6, i64 32
  tail call void @llvm.memset.p0.i64(ptr noundef nonnull align 8 dereferenceable(32) %6, i8 0, i64 32, i1 false)
  store ptr %8, ptr %9, align 8, !tbaa !31
  %10 = getelementptr inbounds nuw i8, ptr %6, i64 40
  store ptr %8, ptr %10, align 8, !tbaa !36
  %11 = getelementptr inbounds nuw i8, ptr %6, i64 48
  store i64 0, ptr %11, align 8, !tbaa !37
  store ptr %6, ptr @_ZZN9grpc_core8internal22ServerRetryThrottleMap3GetEvE1m, align 8, !tbaa !38
  tail call void @__cxa_guard_release(ptr nonnull @_ZGVZN9grpc_core8internal22ServerRetryThrottleMap3GetEvE1m) #19
  br label %12

12:                                               ; preds = %7, %3, %0
  %13 = load ptr, ptr @_ZZN9grpc_core8internal22ServerRetryThrottleMap3GetEvE1m, align 8, !tbaa !38
  ret ptr %13

14:                                               ; preds = %5
  %15 = landingpad { ptr, i32 }
          cleanup
  tail call void @__cxa_guard_abort(ptr nonnull @_ZGVZN9grpc_core8internal22ServerRetryThrottleMap3GetEvE1m) #19
  resume { ptr, i32 } %15
}